target datalayout = "e-m:e-p270:32:32-p271:32:32-p272:64:64-i64:64-i128:128-f80:128-n8:16:32:64-S128"
target triple = "x86_64-pc-linux-gnu"

%struct.mi_random_cxt_s = type { [16 x i32], [16 x i32], i32, i8 }

@.str = private unnamed_addr constant [33 x i8] c"unable to use secure randomness\0A\00", align 1
@.str.1 = private unnamed_addr constant [17 x i8] c"expand 32-byte k\00", align 1

; Function Attrs: inlinehint nounwind uwtable
define internal i32 @read32(ptr noundef %0, i64 noundef %1) #3 {
  %3 = alloca ptr, align 8
  %4 = alloca i64, align 8
  %5 = alloca i64, align 8
  store ptr %0, ptr %3, align 8, !tbaa !28
  store i64 %1, ptr %4, align 8, !tbaa !8
  call void @llvm.lifetime.start.p0(i64 8, ptr %5) #7
  %6 = load i64, ptr %4, align 8, !tbaa !8
  %7 = mul i64 4, %6
  store i64 %7, ptr %5, align 8, !tbaa !8
  %8 = load ptr, ptr %3, align 8, !tbaa !28
  %9 = load i64, ptr %5, align 8, !tbaa !8
  %10 = add i64 %9, 0
  %11 = getelementptr inbounds nuw i8, ptr %8, i64 %10
  %12 = load i8, ptr %11, align 1, !tbaa !32
  %13 = zext i8 %12 to i32
  %14 = load ptr, ptr %3, align 8, !tbaa !28
  %15 = load i64, ptr %5, align 8, !tbaa !8
  %16 = add i64 %15, 1
  %17 = getelementptr inbounds nuw i8, ptr %14, i64 %16
  %18 = load i8, ptr %17, align 1, !tbaa !32
  %19 = zext i8 %18 to i32
  %20 = shl i32 %19, 8
  %21 = or i32 %13, %20
  %22 = load ptr, ptr %3, align 8, !tbaa !28
  %23 = load i64, ptr %5, align 8, !tbaa !8
  %24 = add i64 %23, 2
  %25 = getelementptr inbounds nuw i8, ptr %22, i64 %24
  %26 = load i8, ptr %25, align 1, !tbaa !32
  %27 = zext i8 %26 to i32
  %28 = shl i32 %27, 16
  %29 = or i32 %21, %28
  %30 = load ptr, ptr %3, align 8, !tbaa !28
  %31 = load i64, ptr %5, align 8, !tbaa !8
  %32 = add i64 %31, 3
  %33 = getelementptr inbounds nuw i8, ptr %30, i64 %32
  %34 = load i8, ptr %33, align 1, !tbaa !32
  %35 = zext i8 %34 to i32
  %36 = shl i32 %35, 24
  %37 = or i32 %29, %36
  call void @llvm.lifetime.end.p0(i64 8, ptr %5) #7
  ret i32 %37
}

; Function Attrs: nounwind uwtable
define internal void @chacha_init(ptr noundef %0, ptr noundef %1, i64 noundef %2) #0 {
  %4 = alloca ptr, align 8
  %5 = alloca ptr, align 8
  %6 = alloca i64, align 8
  %7 = alloca i64, align 8
  %8 = alloca ptr, align 8
  %9 = alloca i64, align 8
  store ptr %0, ptr %4, align 8, !tbaa !3
  store ptr %1, ptr %5, align 8, !tbaa !28
  store i64 %2, ptr %6, align 8, !tbaa !8
  %10 = load ptr, ptr %4, align 8, !tbaa !3
  call void @llvm.memset.p0.i64(ptr align 4 %10, i8 0, i64 136, i1 false)
  call void @llvm.lifetime.start.p0(i64 8, ptr %7) #7
  store i64 0, ptr %7, align 8, !tbaa !8
  br label %11

11:                                               ; preds = %23, %3
  %12 = load i64, ptr %7, align 8, !tbaa !8
  %13 = icmp ult i64 %12, 4
  br i1 %13, label %15, label %14

14:                                               ; preds = %11
  call void @llvm.lifetime.end.p0(i64 8, ptr %7) #7
  br label %26

15:                                               ; preds = %11
  call void @llvm.lifetime.start.p0(i64 8, ptr %8) #7
  store ptr @.str.1, ptr %8, align 8, !tbaa !28
  %16 = load ptr, ptr %8, align 8, !tbaa !28
  %17 = load i64, ptr %7, align 8, !tbaa !8
  %18 = call i32 @read32(ptr noundef %16, i64 noundef %17) #6
  %19 = load ptr, ptr %4, align 8, !tbaa !3
  %20 = getelementptr inbounds nuw %struct.mi_random_cxt_s, ptr %19, i32 0, i32 0
  %21 = load i64, ptr %7, align 8, !tbaa !8
  %22 = getelementptr inbounds nuw [16 x i32], ptr %20, i64 0, i64 %21
  store i32 %18, ptr %22, align 4, !tbaa !10
  call void @llvm.lifetime.end.p0(i64 8, ptr %8) #7
  br label %23

23:                                               ; preds = %15
  %24 = load i64, ptr %7, align 8, !tbaa !8
  %25 = add i64 %24, 1
  store i64 %25, ptr %7, align 8, !tbaa !8
  br label %11, !llvm.loop !30

26:                                               ; preds = %14
  call void @llvm.lifetime.start.p0(i64 8, ptr %9) #7
  store i64 0, ptr %9, align 8, !tbaa !8
  br label %27

27:                                               ; preds = %40, %26
  %28 = load i64, ptr %9, align 8, !tbaa !8
  %29 = icmp ult i64 %28, 8
  br i1 %29, label %31, label %30

30:                                               ; preds = %27
  call void @llvm.lifetime.end.p0(i64 8, ptr %9) #7
  br label %43

31:                                               ; preds = %27
  %32 = load ptr, ptr %5, align 8, !tbaa !28
  %33 = load i64, ptr %9, align 8, !tbaa !8
  %34 = call i32 @read32(ptr noundef %32, i64 noundef %33) #6
  %35 = load ptr, ptr %4, align 8, !tbaa !3
  %36 = getelementptr inbounds nuw %struct.mi_random_cxt_s, ptr %35, i32 0, i32 0
  %37 = load i64, ptr %9, align 8, !tbaa !8
  %38 = add i64 %37, 4
  %39 = getelementptr inbounds nuw [16 x i32], ptr %36, i64 0, i64 %38
  store i32 %34, ptr %39, align 4, !tbaa !10
  br label %40

40:                                               ; preds = %31
  %41 = load i64, ptr %9, align 8, !tbaa !8
  %42 = add i64 %41, 1
  store i64 %42, ptr %9, align 8, !tbaa !8
  br label %27, !llvm.loop !31

43:                                               ; preds = %30
  %44 = load ptr, ptr %4, align 8, !tbaa !3
  %45 = getelementptr inbounds nuw %struct.mi_random_cxt_s, ptr %44, i32 0, i32 0
  %46 = getelementptr inbounds [16 x i32], ptr %45, i64 0, i64 12
  store i32 0, ptr %46, align 4, !tbaa !10
  %47 = load ptr, ptr %4, align 8, !tbaa !3
  %48 = getelementptr inbounds nuw %struct.mi_random_cxt_s, ptr %47, i32 0, i32 0
  %49 = getelementptr inbounds [16 x i32], ptr %48, i64 0, i64 13
  store i32 0, ptr %49, align 4, !tbaa !10
  %50 = load i64, ptr %6, align 8, !tbaa !8
  %51 = trunc i64 %50 to i32
  %52 = load ptr, ptr %4, align 8, !tbaa !3
  %53 = getelementptr inbounds nuw %struct.mi_random_cxt_s, ptr %52, i32 0, i32 0
  %54 = getelementptr inbounds [16 x i32], ptr %53, i64 0, i64 14
  store i32 %51, ptr %54, align 4, !tbaa !10
  %55 = load i64, ptr %6, align 8, !tbaa !8
  %56 = lshr i64 %55, 32
  %57 = trunc i64 %56 to i32
  %58 = load ptr, ptr %4, align 8, !tbaa !3
  %59 = getelementptr inbounds nuw %struct.mi_random_cxt_s, ptr %58, i32 0, i32 0
  %60 = getelementptr inbounds [16 x i32], ptr %59, i64 0, i64 15
  store i32 %57, ptr %60, align 4, !tbaa !10
  ret void
}

; Function Attrs: inlinehint nounwind uwtable
define internal i64 @_mi_random_shuffle(i64 noundef %0) #3 {
  %2 = alloca i64, align 8
  store i64 %0, ptr %2, align 8, !tbaa !8
  %3 = load i64, ptr %2, align 8, !tbaa !8
  %4 = icmp eq i64 %3, 0
  br i1 %4, label %5, label %6

5:                                                ; preds = %1
  store i64 17, ptr %2, align 8, !tbaa !8
  br label %6

6:                                                ; preds = %5, %1
  %7 = load i64, ptr %2, align 8, !tbaa !8
  %8 = lshr i64 %7, 30
  %9 = load i64, ptr %2, align 8, !tbaa !8
  %10 = xor i64 %9, %8
  store i64 %10, ptr %2, align 8, !tbaa !8
  %11 = load i64, ptr %2, align 8, !tbaa !8
  %12 = mul i64 %11, -4658895280553007687
  store i64 %12, ptr %2, align 8, !tbaa !8
  %13 = load i64, ptr %2, align 8, !tbaa !8
  %14 = lshr i64 %13, 27
  %15 = load i64, ptr %2, align 8, !tbaa !8
  %16 = xor i64 %15, %14
  store i64 %16, ptr %2, align 8, !tbaa !8
  %17 = load i64, ptr %2, align 8, !tbaa !8
  %18 = mul i64 %17, -7723592293110705685
  store i64 %18, ptr %2, align 8, !tbaa !8
  %19 = load i64, ptr %2, align 8, !tbaa !8
  %20 = lshr i64 %19, 31
  %21 = load i64, ptr %2, align 8, !tbaa !8
  %22 = xor i64 %21, %20
  store i64 %22, ptr %2, align 8, !tbaa !8
  %23 = load i64, ptr %2, align 8, !tbaa !8
  ret i64 %23
}

; Function Attrs: nounwind uwtable
define hidden i64 @_mi_os_random_weak(i64 noundef %0) #0 {
  %2 = alloca i64, align 8
  %3 = alloca i64, align 8
  %4 = alloca i64, align 8
  %5 = alloca i64, align 8
  store i64 %0, ptr %2, align 8, !tbaa !8
  call void @llvm.lifetime.start.p0(i64 8, ptr %3) #7
  %6 = load i64, ptr %2, align 8, !tbaa !8
  %7 = xor i64 ptrtoint (ptr @_mi_os_random_weak to i64), %6
  store i64 %7, ptr %3, align 8, !tbaa !8
  %8 = call i64 @_mi_prim_clock_now() #6
  %9 = load i64, ptr %3, align 8, !tbaa !8
  %10 = xor i64 %9, %8
  store i64 %10, ptr %3, align 8, !tbaa !8
  call void @llvm.lifetime.start.p0(i64 8, ptr %4) #7
  %11 = load i64, ptr %3, align 8, !tbaa !8
  %12 = load i64, ptr %3, align 8, !tbaa !8
  %13 = lshr i64 %12, 17
  %14 = xor i64 %11, %13
  %15 = and i64 %14, 15
  %16 = add i64 %15, 1
  store i64 %16, ptr %4, align 8, !tbaa !8
  call void @llvm.lifetime.start.p0(i64 8, ptr %5) #7
  store i64 0, ptr %5, align 8, !tbaa !8
  br label %17

17:                                               ; preds = %25, %1
  %18 = load i64, ptr %5, align 8, !tbaa !8
  %19 = load i64, ptr %4, align 8, !tbaa !8
  %20 = icmp ult i64 %18, %19
  br i1 %20, label %22, label %21

21:                                               ; preds = %17
  call void @llvm.lifetime.end.p0(i64 8, ptr %5) #7
  br label %28

22:                                               ; preds = %17
  %23 = load i64, ptr %3, align 8, !tbaa !8
  %24 = call i64 @_mi_random_shuffle(i64 noundef %23) #6
  store i64 %24, ptr %3, align 8, !tbaa !8
  br label %25

25:                                               ; preds = %22
  %26 = load i64, ptr %5, align 8, !tbaa !8
  %27 = add i64 %26, 1
  store i64 %27, ptr %5, align 8, !tbaa !8
  br label %17, !llvm.loop !15

28:                                               ; preds = %21
  %29 = load i64, ptr %3, align 8, !tbaa !8
  call void @llvm.lifetime.end.p0(i64 8, ptr %4) #7
  call void @llvm.lifetime.end.p0(i64 8, ptr %3) #7
  ret i64 %29
}

; Function Attrs: nounwind uwtable
define internal void @mi_random_init_ex(ptr noundef %0, i1 noundef zeroext %1) #0 {
  %3 = alloca ptr, align 8
  %4 = alloca i8, align 1
  %5 = alloca [32 x i8], align 16
  %6 = alloca i64, align 8
  %7 = alloca i64, align 8
  store ptr %0, ptr %3, align 8, !tbaa !3
  %8 = zext i1 %1 to i8
  store i8 %8, ptr %4, align 1, !tbaa !17
  call void @llvm.lifetime.start.p0(i64 32, ptr %5) #7
  %9 = load i8, ptr %4, align 1, !tbaa !17, !range !18, !noundef !19
  %10 = trunc i8 %9 to i1
  br i1 %10, label %14, label %11

11:                                               ; preds = %2
  %12 = getelementptr inbounds [32 x i8], ptr %5, i64 0, i64 0
  %13 = call zeroext i1 @_mi_prim_random_buf(ptr noundef %12, i64 noundef 32) #6
  br i1 %13, label %38, label %14

14:                                               ; preds = %11, %2
  %15 = load i8, ptr %4, align 1, !tbaa !17, !range !18, !noundef !19
  %16 = trunc i8 %15 to i1
  br i1 %16, label %18, label %17

17:                                               ; preds = %14
  call void (ptr, ...) @_mi_warning_message(ptr noundef @.str) #6
  br label %18

18:                                               ; preds = %17, %14
  call void @llvm.lifetime.start.p0(i64 8, ptr %6) #7
  %19 = call i64 @_mi_os_random_weak(i64 noundef 0) #6
  store i64 %19, ptr %6, align 8, !tbaa !8
  call void @llvm.lifetime.start.p0(i64 8, ptr %7) #7
  store i64 0, ptr %7, align 8, !tbaa !8
  br label %20

20:                                               ; preds = %32, %18
  %21 = load i64, ptr %7, align 8, !tbaa !8
  %22 = icmp ult i64 %21, 8
  br i1 %22, label %24, label %23

23:                                               ; preds = %20
  call void @llvm.lifetime.end.p0(i64 8, ptr %7) #7
  br label %35

24:                                               ; preds = %20
  %25 = load i64, ptr %6, align 8, !tbaa !8
  %26 = call i64 @_mi_random_shuffle(i64 noundef %25) #6
  store i64 %26, ptr %6, align 8, !tbaa !8
  %27 = load i64, ptr %6, align 8, !tbaa !8
  %28 = trunc i64 %27 to i32
  %29 = getelementptr inbounds [32 x i8], ptr %5, i64 0, i64 0
  %30 = load i64, ptr %7, align 8, !tbaa !8
  %31 = getelementptr inbounds nuw i32, ptr %29, i64 %30
  store i32 %28, ptr %31, align 4, !tbaa !10
  br label %32

32:                                               ; preds = %24
  %33 = load i64, ptr %7, align 8, !tbaa !8
  %34 = add i64 %33, 1
  store i64 %34, ptr %7, align 8, !tbaa !8
  br label %20, !llvm.loop !20

35:                                               ; preds = %23
  %36 = load ptr, ptr %3, align 8, !tbaa !3
  %37 = getelementptr inbounds nuw %struct.mi_random_cxt_s, ptr %36, i32 0, i32 3
  store i8 1, ptr %37, align 4, !tbaa !21
  call void @llvm.lifetime.end.p0(i64 8, ptr %6) #7
  br label %41

38:                                               ; preds = %11
  %39 = load ptr, ptr %3, align 8, !tbaa !3
  %40 = getelementptr inbounds nuw %struct.mi_random_cxt_s, ptr %39, i32 0, i32 3
  store i8 0, ptr %40, align 4, !tbaa !21
  br label %41

41:                                               ; preds = %38, %35
  %42 = load ptr, ptr %3, align 8, !tbaa !3
  %43 = getelementptr inbounds [32 x i8], ptr %5, i64 0, i64 0
  %44 = load ptr, ptr %3, align 8, !tbaa !3
  %45 = ptrtoint ptr %44 to i64
  call void @chacha_init(ptr noundef %42, ptr noundef %43, i64 noundef %45) #6
  call void @llvm.lifetime.end.p0(i64 32, ptr %5) #7
  ret void
}