; Function Attrs: nounwind uwtable
define internal fastcc void @mi_random_init_ex(ptr noundef %0, i1 noundef zeroext %1) unnamed_addr #1 {
  %3 = alloca [32 x i8], align 16
  call void @llvm.lifetime.start.p0(i64 32, ptr nonnull %3) #9
  br i1 %1, label %.critedge, label %4

4:                                                ; preds = %2
  %5 = call zeroext i1 @_mi_prim_random_buf(ptr noundef nonnull %3, i64 noundef 32) #8
  br i1 %5, label %.loopexit, label %6

6:                                                ; preds = %4
  call void (ptr, ...) @_mi_warning_message(ptr noundef nonnull @.str) #8
  br label %.critedge

.critedge:                                        ; preds = %2, %6
  %7 = call i64 @_mi_prim_clock_now() #8
  %8 = xor i64 %7, ptrtoint (ptr @_mi_os_random_weak to i64)
  %9 = lshr i64 %8, 17
  %10 = xor i64 %9, %8
  %11 = and i64 %10, 15
  br label %12

12:                                               ; preds = %12, %.critedge
  %.011.i = phi i64 [ 0, %.critedge ], [ %22, %12 ]
  %.0910.i = phi i64 [ %8, %.critedge ], [ %21, %12 ]
  %13 = icmp eq i64 %.0910.i, 0
  %spec.store.select.i.i = select i1 %13, i64 17, i64 %.0910.i
  %14 = lshr i64 %spec.store.select.i.i, 30
  %15 = xor i64 %14, %spec.store.select.i.i
  %16 = mul i64 %15, -4658895280553007687
  %17 = lshr i64 %16, 27
  %18 = xor i64 %17, %16
  %19 = mul i64 %18, -7723592293110705685
  %20 = lshr i64 %19, 31
  %21 = xor i64 %20, %19
  %22 = add nuw nsw i64 %.011.i, 1
  %exitcond.not.i = icmp eq i64 %.011.i, %11
  br i1 %exitcond.not.i, label %_mi_os_random_weak.exit, label %12, !llvm.loop !10

_mi_os_random_weak.exit:                          ; preds = %12, %_mi_os_random_weak.exit
  %.013 = phi i64 [ %34, %_mi_os_random_weak.exit ], [ 0, %12 ]
  %.01012 = phi i64 [ %31, %_mi_os_random_weak.exit ], [ %21, %12 ]
  %23 = icmp eq i64 %.01012, 0
  %spec.store.select.i = select i1 %23, i64 17, i64 %.01012
  %24 = lshr i64 %spec.store.select.i, 30
  %25 = xor i64 %24, %spec.store.select.i
  %26 = mul i64 %25, -4658895280553007687
  %27 = lshr i64 %26, 27
  %28 = xor i64 %27, %26
  %29 = mul i64 %28, -7723592293110705685
  %30 = lshr i64 %29, 31
  %31 = xor i64 %30, %29
  %32 = trunc i64 %31 to i32
  %33 = getelementptr inbounds nuw i32, ptr %3, i64 %.013
  store i32 %32, ptr %33, align 4, !tbaa !3
  %34 = add nuw nsw i64 %.013, 1
  %exitcond.not = icmp eq i64 %34, 8
  br i1 %exitcond.not, label %.loopexit, label %_mi_os_random_weak.exit, !llvm.loop !12

.loopexit:                                        ; preds = %_mi_os_random_weak.exit, %4
  call void @llvm.memset.p0.i64(ptr noundef nonnull align 4 dereferenceable(136) %0, i8 0, i64 136, i1 false)
  br label %35

35:                                               ; preds = %35, %.loopexit
  %.01819.i = phi i64 [ 0, %.loopexit ], [ %59, %35 ]
  %36 = shl nuw nsw i64 %.01819.i, 2
  %37 = getelementptr inbounds nuw i8, ptr @.str.1, i64 %36
  %38 = load i8, ptr %37, align 1, !tbaa !13
  %39 = zext i8 %38 to i32
  %40 = or disjoint i64 %36, 1
  %41 = getelementptr inbounds nuw i8, ptr @.str.1, i64 %40
  %42 = load i8, ptr %41, align 1, !tbaa !13
  %43 = zext i8 %42 to i32
  %44 = shl nuw nsw i32 %43, 8
  %45 = or disjoint i32 %44, %39
  %46 = or disjoint i64 %36, 2
  %47 = getelementptr inbounds nuw i8, ptr @.str.1, i64 %46
  %48 = load i8, ptr %47, align 1, !tbaa !13
  %49 = zext i8 %48 to i32
  %50 = shl nuw nsw i32 %49, 16
  %51 = or disjoint i32 %45, %50
  %52 = or disjoint i64 %36, 3
  %53 = getelementptr inbounds nuw i8, ptr @.str.1, i64 %52
  %54 = load i8, ptr %53, align 1, !tbaa !13
  %55 = zext i8 %54 to i32
  %56 = shl nuw i32 %55, 24
  %57 = or disjoint i32 %51, %56
  %58 = getelementptr inbounds nuw [16 x i32], ptr %0, i64 0, i64 %.01819.i
  store i32 %57, ptr %58, align 4, !tbaa !3
  %59 = add nuw nsw i64 %.01819.i, 1
  %exitcond.not.i11 = icmp eq i64 %59, 4
  br i1 %exitcond.not.i11, label %.preheader.i, label %35, !llvm.loop !14

.preheader.i:                                     ; preds = %35, %.preheader.i
  %.020.i = phi i64 [ %84, %.preheader.i ], [ 0, %35 ]
  %60 = shl nuw nsw i64 %.020.i, 2
  %61 = getelementptr inbounds nuw i8, ptr %3, i64 %60
  %62 = load i8, ptr %61, align 4, !tbaa !13
  %63 = zext i8 %62 to i32
  %64 = or disjoint i64 %60, 1
  %65 = getelementptr inbounds nuw i8, ptr %3, i64 %64
  %66 = load i8, ptr %65, align 1, !tbaa !13
  %67 = zext i8 %66 to i32
  %68 = shl nuw nsw i32 %67, 8
  %69 = or disjoint i32 %68, %63
  %70 = or disjoint i64 %60, 2
  %71 = getelementptr inbounds nuw i8, ptr %3, i64 %70
  %72 = load i8, ptr %71, align 2, !tbaa !13
  %73 = zext i8 %72 to i32
  %74 = shl nuw nsw i32 %73, 16
  %75 = or disjoint i32 %69, %74
  %76 = or disjoint i64 %60, 3
  %77 = getelementptr inbounds nuw i8, ptr %3, i64 %76
  %78 = load i8, ptr %77, align 1, !tbaa !13
  %79 = zext i8 %78 to i32
  %80 = shl nuw i32 %79, 24
  %81 = or disjoint i32 %75, %80
  %82 = add nuw nsw i64 %.020.i, 4
  %83 = getelementptr inbounds nuw [16 x i32], ptr %0, i64 0, i64 %82
  store i32 %81, ptr %83, align 4, !tbaa !3
  %84 = add nuw nsw i64 %.020.i, 1
  %exitcond21.not.i = icmp eq i64 %84, 8
  br i1 %exitcond21.not.i, label %chacha_init.exit, label %.preheader.i, !llvm.loop !15

chacha_init.exit:                                 ; preds = %.preheader.i
  %85 = ptrtoint ptr %0 to i64
  %86 = getelementptr inbounds nuw i8, ptr %0, i64 48
  store i32 0, ptr %86, align 4, !tbaa !3
  %87 = getelementptr inbounds nuw i8, ptr %0, i64 52
  store i32 0, ptr %87, align 4, !tbaa !3
  %88 = trunc i64 %85 to i32
  %89 = getelementptr inbounds nuw i8, ptr %0, i64 56
  store i32 %88, ptr %89, align 4, !tbaa !3
  %90 = lshr i64 %85, 32
  %91 = trunc nuw i64 %90 to i32
  %92 = getelementptr inbounds nuw i8, ptr %0, i64 60
  store i32 %91, ptr %92, align 4, !tbaa !3
  call void @llvm.lifetime.end.p0(i64 32, ptr nonnull %3) #9
  ret void
}